; Function Attrs: nounwind uwtable
define dso_local i32 @data_list_for_each(ptr noundef %0, ptr noundef readonly captures(none) %1, ptr noundef %2) local_unnamed_addr #0 {
  %.not = icmp eq ptr %0, null
  br i1 %.not, label %7, label %4

4:                                                ; preds = %3
  %5 = getelementptr inbounds nuw i8, ptr %0, i64 4
  %6 = load i32, ptr %5, align 4
  %.not26 = icmp eq i32 %6, 65282
  br i1 %.not26, label %9, label %7

7:                                                ; preds = %4, %3
  %8 = tail call i32 (ptr, ...) @error(ptr noundef nonnull @.str.35, ptr noundef nonnull @__func__.data_list_for_each, ptr noundef %0) #16
  br label %.loopexit

9:                                                ; preds = %4
  %10 = getelementptr inbounds nuw i8, ptr %0, i64 8
  %11 = load ptr, ptr %10, align 8
  %12 = getelementptr inbounds nuw i8, ptr %11, i64 16
  %13 = load ptr, ptr %12, align 8
  %.not2729 = icmp eq ptr %13, null
  br i1 %.not2729, label %.loopexit, label %.lr.ph

.lr.ph:                                           ; preds = %9, %28
  %.02231 = phi i32 [ %17, %28 ], [ 0, %9 ]
  %.02330 = phi ptr [ %.124, %28 ], [ %13, %9 ]
  %14 = getelementptr inbounds nuw i8, ptr %.02330, i64 16
  %15 = load ptr, ptr %14, align 8
  %16 = tail call i32 %1(ptr noundef %15, ptr noundef %2) #16
  %17 = add nuw nsw i32 %.02231, 1
  switch i32 %16, label %27 [
    i32 1, label %18
    i32 2, label %21
    i32 4, label %25
    i32 3, label %.loopexit
  ]

18:                                               ; preds = %.lr.ph
  %19 = getelementptr inbounds nuw i8, ptr %.02330, i64 8
  %20 = load ptr, ptr %19, align 8
  br label %28

21:                                               ; preds = %.lr.ph
  %22 = getelementptr inbounds nuw i8, ptr %.02330, i64 8
  %23 = load ptr, ptr %22, align 8
  %24 = load ptr, ptr %10, align 8
  tail call fastcc void @_release_data_list_node(ptr noundef %24, ptr noundef %.02330)
  br label %28

25:                                               ; preds = %.lr.ph
  %26 = xor i32 %.02231, -1
  br label %.loopexit

27:                                               ; preds = %.lr.ph
  tail call void (ptr, ...) @fatal_abort(ptr noundef nonnull @.str.34, ptr noundef nonnull @__func__.data_list_for_each) #18
  unreachable

28:                                               ; preds = %18, %21
  %.124 = phi ptr [ %23, %21 ], [ %20, %18 ]
  %.not27 = icmp eq ptr %.124, null
  br i1 %.not27, label %.loopexit, label %.lr.ph, !llvm.loop !25

.loopexit:                                        ; preds = %.lr.ph, %28, %25, %9, %7
  %.0 = phi i32 [ -1, %7 ], [ 0, %9 ], [ %26, %25 ], [ %17, %28 ], [ %17, %.lr.ph ]
  ret i32 %.0
}